target datalayout = "e-m:e-p270:32:32-p271:32:32-p272:64:64-i64:64-i128:128-f80:128-n8:16:32:64-S128"
target triple = "x86_64-pc-linux-gnu"

%"struct.opencv_test::(anonymous namespace)::AdaptThreshMethod" = type { i32 }
%"class.__gnu_cxx::__normal_iterator.148" = type { ptr }
%"class.testing::internal::ValuesInIteratorRangeGenerator<opencv_test::(anonymous namespace)::AdaptThreshMethod>::Iterator" = type { %"class.testing::internal::ParamIteratorInterface.147", ptr, %"class.__gnu_cxx::__normal_iterator.148", %"class.testing::internal::scoped_ptr.149" }
%"class.testing::internal::ParamIteratorInterface.147" = type { ptr }
%"class.testing::internal::scoped_ptr.149" = type { ptr }

; Function Attrs: mustprogress uwtable
define internal void @_ZN7testing8internal10scoped_ptrIKN11opencv_test12_GLOBAL__N_117AdaptThreshMethodEE5resetEPS5_(ptr noundef nonnull align 8 dereferenceable(8) %0, ptr noundef %1) #6 align 2 {
  %3 = alloca ptr, align 8
  %4 = alloca ptr, align 8
  store ptr %0, ptr %3, align 8, !tbaa !675
  store ptr %1, ptr %4, align 8, !tbaa !150
  %5 = load ptr, ptr %3, align 8
  %6 = load ptr, ptr %4, align 8, !tbaa !150
  %7 = getelementptr inbounds nuw %"class.testing::internal::scoped_ptr.149", ptr %5, i32 0, i32 0
  %8 = load ptr, ptr %7, align 8, !tbaa !677
  %9 = icmp ne ptr %6, %8
  br i1 %9, label %10, label %21

10:                                               ; preds = %2
  %11 = call noundef zeroext i1 @_ZN7testing8internal6IsTrueEb(i1 noundef zeroext true)
  br i1 %11, label %12, label %18

12:                                               ; preds = %10
  %13 = getelementptr inbounds nuw %"class.testing::internal::scoped_ptr.149", ptr %5, i32 0, i32 0
  %14 = load ptr, ptr %13, align 8, !tbaa !677
  %15 = icmp eq ptr %14, null
  br i1 %15, label %17, label %16

16:                                               ; preds = %12
  call void @_ZdlPv(ptr noundef %14) #25
  br label %17

17:                                               ; preds = %16, %12
  br label %18

18:                                               ; preds = %17, %10
  %19 = load ptr, ptr %4, align 8, !tbaa !150
  %20 = getelementptr inbounds nuw %"class.testing::internal::scoped_ptr.149", ptr %5, i32 0, i32 0
  store ptr %19, ptr %20, align 8, !tbaa !677
  br label %21

21:                                               ; preds = %18, %2
  ret void
}

; Function Attrs: mustprogress nounwind uwtable
define internal noundef nonnull align 8 dereferenceable(8) ptr @_ZN9__gnu_cxx17__normal_iteratorIPKN11opencv_test12_GLOBAL__N_117AdaptThreshMethodESt6vectorIS3_SaIS3_EEEppEv(ptr noundef nonnull align 8 dereferenceable(8) %0) #9 align 2 {
  %2 = alloca ptr, align 8
  store ptr %0, ptr %2, align 8, !tbaa !670
  %3 = load ptr, ptr %2, align 8
  %4 = getelementptr inbounds nuw %"class.__gnu_cxx::__normal_iterator.148", ptr %3, i32 0, i32 0
  %5 = load ptr, ptr %4, align 8, !tbaa !672
  %6 = getelementptr inbounds nuw %"struct.opencv_test::(anonymous namespace)::AdaptThreshMethod", ptr %5, i32 1
  store ptr %6, ptr %4, align 8, !tbaa !672
  ret ptr %3
}

; Function Attrs: mustprogress uwtable
define internal void @_ZN7testing8internal30ValuesInIteratorRangeGeneratorIN11opencv_test12_GLOBAL__N_117AdaptThreshMethodEE8Iterator7AdvanceEv(ptr noundef nonnull align 8 dereferenceable(32) %0) unnamed_addr #6 align 2 {
  %2 = alloca ptr, align 8
  store ptr %0, ptr %2, align 8, !tbaa !662
  %3 = load ptr, ptr %2, align 8
  %4 = getelementptr inbounds nuw %"class.testing::internal::ValuesInIteratorRangeGenerator<opencv_test::(anonymous namespace)::AdaptThreshMethod>::Iterator", ptr %3, i32 0, i32 2
  %5 = call noundef nonnull align 8 dereferenceable(8) ptr @_ZN9__gnu_cxx17__normal_iteratorIPKN11opencv_test12_GLOBAL__N_117AdaptThreshMethodESt6vectorIS3_SaIS3_EEEppEv(ptr noundef nonnull align 8 dereferenceable(8) %4) #3
  %6 = getelementptr inbounds nuw %"class.testing::internal::ValuesInIteratorRangeGenerator<opencv_test::(anonymous namespace)::AdaptThreshMethod>::Iterator", ptr %3, i32 0, i32 3
  call void @_ZN7testing8internal10scoped_ptrIKN11opencv_test12_GLOBAL__N_117AdaptThreshMethodEE5resetEPS5_(ptr noundef nonnull align 8 dereferenceable(8) %6, ptr noundef null)
  ret void
}